target datalayout = "e-m:e-p270:32:32-p271:32:32-p272:64:64-i64:64-i128:128-f80:128-n8:16:32:64-S128"
target triple = "x86_64-pc-linux-gnu"

%struct.nano_session_state = type { i32, i32 }

; Function Attrs: null_pointer_is_valid sspstrong uwtable
define internal i32 @get_nano_tcp_client_message_len(ptr noundef %0, ptr noundef %1, i32 noundef %2, ptr noundef %3) #0 {
  %5 = alloca i32, align 4
  %6 = alloca ptr, align 8
  %7 = alloca ptr, align 8
  %8 = alloca i32, align 4
  %9 = alloca ptr, align 8
  %10 = alloca i32, align 4
  %11 = alloca i32, align 4
  %12 = alloca ptr, align 8
  %13 = alloca i32, align 4
  store ptr %0, ptr %6, align 8
  store ptr %1, ptr %7, align 8
  store i32 %2, ptr %8, align 4
  store ptr %3, ptr %9, align 8
  call void @llvm.lifetime.start.p0(i64 4, ptr %10) #8
  call void @llvm.lifetime.start.p0(i64 4, ptr %11) #8
  call void @llvm.lifetime.start.p0(i64 8, ptr %12) #8
  %14 = load ptr, ptr %9, align 8
  store ptr %14, ptr %12, align 8
  %15 = load ptr, ptr %12, align 8
  %16 = getelementptr inbounds nuw %struct.nano_session_state, ptr %15, i32 0, i32 0
  %17 = load i32, ptr %16, align 4
  %18 = icmp eq i32 %17, 7
  br i1 %18, label %19, label %36

19:                                               ; preds = %4
  %20 = load ptr, ptr %7, align 8
  %21 = load i32, ptr %8, align 4
  %22 = call zeroext i8 @tvb_get_uint8(ptr noundef %20, i32 noundef %21)
  %23 = zext i8 %22 to i32
  store i32 %23, ptr %11, align 4
  %24 = load i32, ptr %11, align 4
  switch i32 %24, label %31 [
    i32 1, label %25
    i32 2, label %26
    i32 3, label %27
    i32 4, label %28
    i32 5, label %29
    i32 6, label %30
  ]

25:                                               ; preds = %19
  store i32 1, ptr %5, align 4
  store i32 1, ptr %13, align 4
  br label %59

26:                                               ; preds = %19
  store i32 153, ptr %5, align 4
  store i32 1, ptr %13, align 4
  br label %59

27:                                               ; preds = %19
  store i32 137, ptr %5, align 4
  store i32 1, ptr %13, align 4
  br label %59

28:                                               ; preds = %19
  store i32 169, ptr %5, align 4
  store i32 1, ptr %13, align 4
  br label %59

29:                                               ; preds = %19
  store i32 137, ptr %5, align 4
  store i32 1, ptr %13, align 4
  br label %59

30:                                               ; preds = %19
  store i32 217, ptr %5, align 4
  store i32 1, ptr %13, align 4
  br label %59

31:                                               ; preds = %19
  %32 = load ptr, ptr %7, align 8
  %33 = call i32 @tvb_captured_length(ptr noundef %32)
  %34 = load i32, ptr %8, align 4
  %35 = sub i32 %33, %34
  store i32 %35, ptr %5, align 4
  store i32 1, ptr %13, align 4
  br label %59

36:                                               ; preds = %4
  %37 = load ptr, ptr %7, align 8
  %38 = call i32 @tvb_captured_length(ptr noundef %37)
  %39 = load i32, ptr %8, align 4
  %40 = sub i32 %38, %39
  %41 = icmp ult i32 %40, 8
  br i1 %41, label %42, label %43

42:                                               ; preds = %36
  store i32 0, ptr %5, align 4
  store i32 1, ptr %13, align 4
  br label %59

43:                                               ; preds = %36
  %44 = load ptr, ptr %7, align 8
  %45 = load i32, ptr %8, align 4
  %46 = add i32 %45, 5
  %47 = call zeroext i8 @tvb_get_uint8(ptr noundef %44, i32 noundef %46)
  %48 = zext i8 %47 to i32
  store i32 %48, ptr %10, align 4
  %49 = load i32, ptr %10, align 4
  switch i32 %49, label %54 [
    i32 6, label %50
    i32 7, label %51
    i32 8, label %52
    i32 9, label %53
  ]

50:                                               ; preds = %43
  store i32 72, ptr %5, align 4
  store i32 1, ptr %13, align 4
  br label %59

51:                                               ; preds = %43
  store i32 8, ptr %5, align 4
  store i32 1, ptr %13, align 4
  br label %59

52:                                               ; preds = %43
  store i32 48, ptr %5, align 4
  store i32 1, ptr %13, align 4
  br label %59

53:                                               ; preds = %43
  store i32 77, ptr %5, align 4
  store i32 1, ptr %13, align 4
  br label %59

54:                                               ; preds = %43
  %55 = load ptr, ptr %7, align 8
  %56 = call i32 @tvb_captured_length(ptr noundef %55)
  %57 = load i32, ptr %8, align 4
  %58 = sub i32 %56, %57
  store i32 %58, ptr %5, align 4
  store i32 1, ptr %13, align 4
  br label %59

59:                                               ; preds = %54, %53, %52, %51, %50, %42, %31, %30, %29, %28, %27, %26, %25
  call void @llvm.lifetime.end.p0(i64 8, ptr %12) #8
  call void @llvm.lifetime.end.p0(i64 4, ptr %11) #8
  call void @llvm.lifetime.end.p0(i64 4, ptr %10) #8
  %60 = load i32, ptr %5, align 4
  ret i32 %60
}