; Function Attrs: null_pointer_is_valid sspstrong uwtable
define internal i32 @get_nano_tcp_client_message_len(ptr readnone captures(none) %0, ptr noundef %1, i32 noundef %2, ptr noundef readonly captures(none) %3) #0 {
  %5 = load i32, ptr %3, align 4
  %6 = icmp eq i32 %5, 7
  br i1 %6, label %7, label %13

7:                                                ; preds = %4
  %8 = tail call zeroext i8 @tvb_get_uint8(ptr noundef %1, i32 noundef %2)
  %switch.tableidx = add i8 %8, -1
  %9 = icmp ult i8 %switch.tableidx, 6
  br i1 %9, label %switch.lookup, label %10

10:                                               ; preds = %7
  %11 = tail call i32 @tvb_captured_length(ptr noundef %1)
  %12 = sub i32 %11, %2
  br label %26

13:                                               ; preds = %4
  %14 = tail call i32 @tvb_captured_length(ptr noundef %1)
  %15 = sub i32 %14, %2
  %16 = icmp ult i32 %15, 8
  br i1 %16, label %26, label %17

17:                                               ; preds = %13
  %18 = add i32 %2, 5
  %19 = tail call zeroext i8 @tvb_get_uint8(ptr noundef %1, i32 noundef %18)
  %switch.tableidx15 = add i8 %19, -6
  %20 = icmp ult i8 %switch.tableidx15, 4
  br i1 %20, label %switch.lookup14, label %21

21:                                               ; preds = %17
  %22 = tail call i32 @tvb_captured_length(ptr noundef %1)
  %23 = sub i32 %22, %2
  br label %26

switch.lookup:                                    ; preds = %7
  %24 = zext nneg i8 %switch.tableidx to i64
  %switch.gep = getelementptr inbounds nuw [6 x i32], ptr @switch.table.get_nano_tcp_server_message_len, i64 0, i64 %24
  %switch.load = load i32, ptr %switch.gep, align 4
  br label %26

switch.lookup14:                                  ; preds = %17
  %25 = zext nneg i8 %switch.tableidx15 to i64
  %switch.gep16 = getelementptr inbounds nuw [4 x i32], ptr @switch.table.get_nano_tcp_client_message_len.2, i64 0, i64 %25
  %switch.load17 = load i32, ptr %switch.gep16, align 4
  br label %26

26:                                               ; preds = %switch.lookup14, %switch.lookup, %13, %21, %10
  %.0 = phi i32 [ %12, %10 ], [ %23, %21 ], [ 0, %13 ], [ %switch.load, %switch.lookup ], [ %switch.load17, %switch.lookup14 ]
  ret i32 %.0
}